(dp0
S'A'
p1
(dp2
g1
F0.8919580111972674
sS'C'
p3
F0.021068997141195527
sS'T'
p4
F0.06610007939833001
sS'G'
p5
F0.02087291226320714
ssg3
(dp6
g1
F0.06407503471896
sg3
F0.8328623970788693
sg4
F0.059342635401048005
sg5
F0.04371993280112265
ssg4
(dp7
g1
F0.01981896017391774
sg3
F0.007107886415876898
sg4
F0.9607973065858182
sg5
F0.012275846824387118
ssg5
(dp8
g1
F0.15262963976907176
sg3
F0.09146305713604994
sg4
F0.19281293193760068
sg5
F0.5630943711572776
ss.