(dp0
S'A'
p1
(dp2
g1
(dp3
g1
(dp4
g1
F0.8250999169450963
sS'C'
p5
F0.051808605260879353
sS'T'
p6
F0.09306251640715357
sS'G'
p7
F0.030028961386870865
ssg5
(dp8
g1
F0.7207069978389563
sg5
F0.09944762987700073
sg6
F0.11566702714576248
sg7
F0.0641783451382805
ssg6
(dp9
g1
F0.5708869262931425
sg5
F0.054404959663413764
sg6
F0.3191318616681547
sg7
F0.05557625237528904
ssg7
(dp10
g1
F0.9056609026848028
sg5
F0.023822148760857247
sg6
F0.037732598447105595
sg7
F0.0327843501072344
sssg5
(dp11
g1
(dp12
g1
F0.14853945319403056
sg5
F0.733241298470076
sg6
F0.08255135994160653
sg7
F0.03566788839428696
ssg5
(dp13
g1
F0.17856724774875204
sg5
F0.6117678026263917
sg6
F0.11348937443176935
sg7
F0.09617557519308684
ssg6
(dp14
g1
F0.09189900195005606
sg5
F0.48915188273405474
sg6
F0.31967494844506383
sg7
F0.09927416687082531
ssg7
(dp15
g1
F0.03883205958208401
sg5
F0.8435528932471037
sg6
F0.04563466371193382
sg7
F0.07198038345887849
sssg6
(dp16
g1
(dp17
g1
F0.07236693110723318
sg5
F0.015122380013874285
sg6
F0.899203821774732
sg7
F0.01330686710416055
ssg5
(dp18
g1
F0.0452096257581209
sg5
F0.0473932368814764
sg6
F0.8792631347088105
sg7
F0.02813400265159212
ssg6
(dp19
g1
F0.10727961626515765
sg5
F0.021176916782350858
sg6
F0.814778057650397
sg7
F0.056765409302094484
ssg7
(dp20
g1
F0.010711154708898945
sg5
F0.003904545220893133
sg6
F0.9573178390736595
sg7
F0.02806646099654839
sssg7
(dp21
g1
(dp22
g1
F0.1526886010535836
sg5
F0.1207767092264499
sg6
F0.189565339987813
sg7
F0.5369693497321536
ssg5
(dp23
g1
F0.14690725564213672
sg5
F0.16915980750251416
sg6
F0.23821689448680672
sg7
F0.44571604236854245
ssg6
(dp24
g1
F0.13092149703766756
sg5
F0.09897241682414383
sg6
F0.5054553564526484
sg7
F0.2646507296855403
ssg7
(dp25
g1
F0.26842194859872054
sg5
F0.064351348654007
sg6
F0.11197815198327601
sg7
F0.5552485507639964
ssssg5
(dp26
g1
(dp27
g1
(dp28
g1
F0.8936313039941002
sg5
F0.047413886514775704
sg6
F0.04808546259537712
sg7
F0.010869346895746937
ssg5
(dp29
g1
F0.8668762144334484
sg5
F0.0699332967574107
sg6
F0.03971072609006573
sg7
F0.02347976271907513
ssg6
(dp30
g1
F0.7290646199922182
sg5
F0.06322341715968055
sg6
F0.16765783088513048
sg7
F0.04005413196297085
ssg7
(dp31
g1
F0.9416264468051243
sg5
F0.010648402779240538
sg6
F0.027810628586460582
sg7
F0.01991452182917451
sssg5
(dp32
g1
(dp33
g1
F0.10811429284543983
sg5
F0.818539205862948
sg6
F0.0527748438693997
sg7
F0.020571657422212418
ssg5
(dp34
g1
F0.1123530611335719
sg5
F0.6676301049323268
sg6
F0.1058219816041705
sg7
F0.1141948523299309
ssg6
(dp35
g1
F0.08297318984503861
sg5
F0.6063964686485381
sg6
F0.26239392188588895
sg7
F0.04823641962053423
ssg7
(dp36
g1
F0.015631473741052934
sg5
F0.9195091675558004
sg6
F0.02842942077026744
sg7
F0.036429937932879373
sssg6
(dp37
g1
(dp38
g1
F0.06446280827462726
sg5
F0.015262798158127986
sg6
F0.9056095104275427
sg7
F0.014664883139702111
ssg5
(dp39
g1
F0.01213958776496659
sg5
F0.019668493663426895
sg6
F0.9553620400247684
sg7
F0.012829878546838114
ssg6
(dp40
g1
F0.04496561406836978
sg5
F0.021933591824384716
sg6
F0.88727892663574
sg7
F0.04582186747150548
ssg7
(dp41
g1
F0.005620153342122671
sg5
F0.0029085635039329616
sg6
F0.9851773529543392
sg7
F0.006293930199605161
sssg7
(dp42
g1
(dp43
g1
F0.17589464073326722
sg5
F0.17107947698085685
sg6
F0.12903841442039238
sg7
F0.5239874678654837
ssg5
(dp44
g1
F0.11627055690738111
sg5
F0.2404022675083979
sg6
F0.09395270879528739
sg7
F0.5493744667889335
ssg6
(dp45
g1
F0.16511647632211812
sg5
F0.17293822124348812
sg6
F0.2512626953505332
sg7
F0.4106826070838606
ssg7
(dp46
g1
F0.06268596224859917
sg5
F0.15972900450206054
sg6
F0.12458495341323453
sg7
F0.6530000798361059
ssssg6
(dp47
g1
(dp48
g1
(dp49
g1
F0.6656646123879498
sg5
F0.10317589794992567
sg6
F0.183842049970639
sg7
F0.04731743969148545
ssg5
(dp50
g1
F0.7184301353017801
sg5
F0.10163553910465377
sg6
F0.13005415269446968
sg7
F0.04988017289909637
ssg6
(dp51
g1
F0.5682368472761434
sg5
F0.07555246630855696
sg6
F0.27751372794445783
sg7
F0.0786969584708419
ssg7
(dp52
g1
F0.8474618693591789
sg5
F0.05079736686341142
sg6
F0.05966308472694854
sg7
F0.04207767905046126
sssg5
(dp53
g1
(dp54
g1
F0.2366392649789441
sg5
F0.5092240935127226
sg6
F0.1923052448015528
sg7
F0.06183139670678047
ssg5
(dp55
g1
F0.23235849817684376
sg5
F0.28590979293613256
sg6
F0.31138165092703624
sg7
F0.1703500579599874
ssg6
(dp56
g1
F0.20051585110950051
sg5
F0.22759819141599463
sg6
F0.47510802345058917
sg7
F0.09677793402391577
ssg7
(dp57
g1
F0.12367447884266562
sg5
F0.6899750818034058
sg6
F0.09228290219036282
sg7
F0.0940675371635657
sssg6
(dp58
g1
(dp59
g1
F0.16737798310139262
sg5
F0.060058806136228785
sg6
F0.7242353689714288
sg7
F0.04832784179094971
ssg5
(dp60
g1
F0.11043356995202151
sg5
F0.08283733783674034
sg6
F0.6969694201293478
sg7
F0.1097596720818904
ssg6
(dp61
g1
F0.11841093605647413
sg5
F0.05072340888135085
sg6
F0.7604458880715531
sg7
F0.07041976699062184
ssg7
(dp62
g1
F0.05825311352594203
sg5
F0.01616677417316803
sg6
F0.8556378014989875
sg7
F0.06994231080190236
sssg7
(dp63
g1
(dp64
g1
F0.2104830923160277
sg5
F0.179366022817466
sg6
F0.18159651383323258
sg7
F0.4285543710332737
ssg5
(dp65
g1
F0.21308088241167977
sg5
F0.2637832186910693
sg6
F0.15942964904621898
sg7
F0.36370624985103206
ssg6
(dp66
g1
F0.144583325618162
sg5
F0.14499433695788275
sg6
F0.45189373693762214
sg7
F0.25852860048633314
ssg7
(dp67
g1
F0.12952633554417375
sg5
F0.09836156214596271
sg6
F0.34615427387948483
sg7
F0.4259578284303787
ssssg7
(dp68
g1
(dp69
g1
(dp70
g1
F0.7719284913928879
sg5
F0.03639560641417522
sg6
F0.11674104921028172
sg7
F0.0749348529826551
ssg5
(dp71
g1
F0.5556677248918179
sg5
F0.16977602451008245
sg6
F0.0869172827870571
sg7
F0.18763896781104258
ssg6
(dp72
g1
F0.5115078795667112
sg5
F0.052635343001285494
sg6
F0.29766630425494556
sg7
F0.13819047317705782
ssg7
(dp73
g1
F0.8393463471719183
sg5
F0.06237727161744234
sg6
F0.04657042989950128
sg7
F0.05170595131113804
sssg5
(dp74
g1
(dp75
g1
F0.15709438947721008
sg5
F0.6910113709787056
sg6
F0.08736696245544233
sg7
F0.06452727708864218
ssg5
(dp76
g1
F0.1720031035506209
sg5
F0.5733661908580664
sg6
F0.10150442068853088
sg7
F0.15312628490278193
ssg6
(dp77
g1
F0.09942127319338677
sg5
F0.40760463713271244
sg6
F0.4129438353281041
sg7
F0.08003025434579676
ssg7
(dp78
g1
F0.0497215947774248
sg5
F0.8541296503274615
sg6
F0.0382629899234978
sg7
F0.057885764971616044
sssg6
(dp79
g1
(dp80
g1
F0.08215346062543218
sg5
F0.019505145993341366
sg6
F0.8796968524563947
sg7
F0.01864454092483168
ssg5
(dp81
g1
F0.04960467103742723
sg5
F0.08488987307471771
sg6
F0.8283317243476622
sg7
F0.03717373154019278
ssg6
(dp82
g1
F0.08446674421643924
sg5
F0.05072026882430023
sg6
F0.7444005187903492
sg7
F0.12041246816891137
ssg7
(dp83
g1
F0.02362814076275207
sg5
F0.004721245638228215
sg6
F0.9598351798141991
sg7
F0.011815433784820722
sssg7
(dp84
g1
(dp85
g1
F0.22462317812594693
sg5
F0.17820627300769112
sg6
F0.15393167213432662
sg7
F0.44323887673203544
ssg5
(dp86
g1
F0.07780666072167398
sg5
F0.12919342083654728
sg6
F0.13917595167823418
sg7
F0.6538239667635446
ssg6
(dp87
g1
F0.18998117181267324
sg5
F0.1669435322101828
sg6
F0.3075681796812684
sg7
F0.3355071162958755
ssg7
(dp88
g1
F0.19437681326758996
sg5
F0.08647927125228913
sg6
F0.09871656088424008
sg7
F0.6204273545958807
ssss.