(dp0
S'A'
p1
(dp2
g1
F0.8608582017735551
sS'C'
p3
F0.02835361028406819
sS'T'
p4
F0.08636934384813975
sS'G'
p5
F0.02441884409423699
ssg3
(dp6
g1
F0.1419917692951218
sg3
F0.601413774227401
sg4
F0.17267890254554624
sg5
F0.08391555393193098
ssg4
(dp7
g1
F0.03125454051971928
sg3
F0.009548247308876975
sg4
F0.9414197641582471
sg5
F0.01777744801315664
ssg5
(dp8
g1
F0.17138137114851001
sg3
F0.12038921894805354
sg4
F0.25133541954948757
sg5
F0.45689399035394884
ss.