(dp0
S'A'
p1
(dp2
g1
(dp3
g1
(dp4
g1
F0.9141112409703467
sS'C'
p5
F0.019858643768364246
sS'T'
p6
F0.06020897689204376
sS'G'
p7
F0.0058211383692453956
ssg5
(dp8
g1
F0.8254398297507735
sg5
F0.08191583119324683
sg6
F0.054477992548035536
sg7
F0.03816634650794417
ssg6
(dp9
g1
F0.6177018455651628
sg5
F0.01619132027241866
sg6
F0.3472327208931678
sg7
F0.018874113269250814
ssg7
(dp10
g1
F0.9190779536156006
sg5
F0.009223988907422166
sg6
F0.01920454778443616
sg7
F0.05249350969254098
sssg5
(dp11
g1
(dp12
g1
F0.14260541884832914
sg5
F0.7845982033327168
sg6
F0.061405182928163354
sg7
F0.011391194890790714
ssg5
(dp13
g1
F0.18323497435987818
sg5
F0.6288065137285318
sg6
F0.1171626819249196
sg7
F0.07079582998667054
ssg6
(dp14
g1
F0.11858566685521249
sg5
F0.4297646508318319
sg6
F0.3856658707524403
sg7
F0.06598381156051532
ssg7
(dp15
g1
F0.0338705981665784
sg5
F0.8740082667079015
sg6
F0.04300774903273777
sg7
F0.049113386092782235
sssg6
(dp16
g1
(dp17
g1
F0.028127112650642716
sg5
F0.007460994383172501
sg6
F0.9621729429005851
sg7
F0.002238950065599729
ssg5
(dp18
g1
F0.023504775762479797
sg5
F0.031525637823063744
sg6
F0.9382124104278391
sg7
F0.0067571759866174134
ssg6
(dp19
g1
F0.07332654637220261
sg5
F0.013772827560104749
sg6
F0.8857077279073183
sg7
F0.02719289816037434
ssg7
(dp20
g1
F0.00529501783960501
sg5
F0.0011615067017698509
sg6
F0.9746316543596588
sg7
F0.018911821098966365
sssg7
(dp21
g1
(dp22
g1
F0.2712528208319093
sg5
F0.11151925977336469
sg6
F0.09818708876589706
sg7
F0.519040830628829
ssg5
(dp23
g1
F0.054610959607261825
sg5
F0.38760135585810757
sg6
F0.17277344809081774
sg7
F0.3850142364438129
ssg6
(dp24
g1
F0.11293930402688024
sg5
F0.04614298741680216
sg6
F0.7184404431358192
sg7
F0.12247726542049839
ssg7
(dp25
g1
F0.18603274066495454
sg5
F0.054768751888519075
sg6
F0.08710323984736008
sg7
F0.6720952675991664
ssssg5
(dp26
g1
(dp27
g1
(dp28
g1
F0.9116186223392747
sg5
F0.02771305705818349
sg6
F0.053694506846183716
sg7
F0.006973813756358087
ssg5
(dp29
g1
F0.908838766950488
sg5
F0.05769490053981268
sg6
F0.02242553561605056
sg7
F0.011040796893648534
ssg6
(dp30
g1
F0.7093707453767393
sg5
F0.03296606203124275
sg6
F0.23887592020237744
sg7
F0.01878727238964052
ssg7
(dp31
g1
F0.9132639520667107
sg5
F0.006787059602842618
sg6
F0.017087184074122342
sg7
F0.06286180425632427
sssg5
(dp32
g1
(dp33
g1
F0.08189113941930473
sg5
F0.8380596531309235
sg6
F0.05572059525573439
sg7
F0.02432861219403745
ssg5
(dp34
g1
F0.0437784243089519
sg5
F0.8647562999518136
sg6
F0.052766026604410196
sg7
F0.03869924913482436
ssg6
(dp35
g1
F0.08661372428793929
sg5
F0.6130488687145977
sg6
F0.2609170983977754
sg7
F0.03942030859968774
ssg7
(dp36
g1
F0.008894135838545092
sg5
F0.9508731066549758
sg6
F0.009513833066028274
sg7
F0.03071892444045093
sssg6
(dp37
g1
(dp38
g1
F0.028715279565744246
sg5
F0.005030899321872417
sg6
F0.9624767738053087
sg7
F0.003777047307074649
ssg5
(dp39
g1
F0.007438468396070797
sg5
F0.014201219831551566
sg6
F0.9755017371059067
sg7
F0.002858574666470851
ssg6
(dp40
g1
F0.02644542011381339
sg5
F0.017222907672336907
sg6
F0.939746989027865
sg7
F0.016584683185984696
ssg7
(dp41
g1
F0.0002966479332715822
sg5
F0.0004857737367902241
sg6
F0.9972274621693288
sg7
F0.0019901161606094534
sssg7
(dp42
g1
(dp43
g1
F0.23961314625487176
sg5
F0.18391886762396883
sg6
F0.16976788497487158
sg7
F0.40670010114628785
ssg5
(dp44
g1
F0.13690675773862365
sg5
F0.33187539921820836
sg6
F0.0845362708419379
sg7
F0.44668157220123006
ssg6
(dp45
g1
F0.15721124988325869
sg5
F0.04177369229877635
sg6
F0.4619936439334264
sg7
F0.33902141388453866
ssg7
(dp46
g1
F0.04315643993039523
sg5
F0.06320609976418028
sg6
F0.07527443377838718
sg7
F0.8183630265270372
ssssg6
(dp47
g1
(dp48
g1
(dp49
g1
F0.7947130582016434
sg5
F0.04392361614481086
sg6
F0.14508194434129745
sg7
F0.016281381312248204
ssg5
(dp50
g1
F0.820741203380013
sg5
F0.08115446017777289
sg6
F0.050938302108376486
sg7
F0.04716603433383767
ssg6
(dp51
g1
F0.5283395609961066
sg5
F0.044808531341356664
sg6
F0.39935222847686974
sg7
F0.02749967918566709
ssg7
(dp52
g1
F0.8395045840270866
sg5
F0.011816711626936297
sg6
F0.03188624811904906
sg7
F0.11679245622692805
sssg5
(dp53
g1
(dp54
g1
F0.27509287428945695
sg5
F0.5307754572930599
sg6
F0.13448249236007914
sg7
F0.05964917605740409
ssg5
(dp55
g1
F0.2725753050944402
sg5
F0.33187882911280736
sg6
F0.21116432037081612
sg7
F0.1843815454219363
ssg6
(dp56
g1
F0.14257943404664966
sg5
F0.18870866296437405
sg6
F0.5579641766507808
sg7
F0.11074772633819557
ssg7
(dp57
g1
F0.09743809504782902
sg5
F0.704501318987826
sg6
F0.0720152901371882
sg7
F0.12604529582715668
sssg6
(dp58
g1
(dp59
g1
F0.13348479128738658
sg5
F0.017439013851506823
sg6
F0.827723074477773
sg7
F0.021353120383333465
ssg5
(dp60
g1
F0.04366686506019015
sg5
F0.07835517774199183
sg6
F0.8484948564649294
sg7
F0.029483100732888554
ssg6
(dp61
g1
F0.07784491744963959
sg5
F0.027062846789768193
sg6
F0.839238330758211
sg7
F0.055853905002381285
ssg7
(dp62
g1
F0.019262909171018385
sg5
F0.004264974425681681
sg6
F0.9166794880260034
sg7
F0.05979262837729661
sssg7
(dp63
g1
(dp64
g1
F0.35772446501291216
sg5
F0.1253372629405466
sg6
F0.22002824021842915
sg7
F0.29691003182811215
ssg5
(dp65
g1
F0.11680455746866415
sg5
F0.4044601449859777
sg6
F0.06541484324631203
sg7
F0.4133204542990461
ssg6
(dp66
g1
F0.11818711429883183
sg5
F0.03136580790726763
sg6
F0.5926962050238269
sg7
F0.2577508727700736
ssg7
(dp67
g1
F0.08643206877277106
sg5
F0.08640534836348708
sg6
F0.3043981578745523
sg7
F0.5227644249891895
ssssg7
(dp68
g1
(dp69
g1
(dp70
g1
F0.8393716629940969
sg5
F0.06118299647831118
sg6
F0.063626199620271
sg7
F0.035819140907320975
ssg5
(dp71
g1
F0.7999218228919356
sg5
F0.11551381815174604
sg6
F0.049613431267897655
sg7
F0.03495092768842062
ssg6
(dp72
g1
F0.6036011636366628
sg5
F0.04683805091818017
sg6
F0.32040946176389873
sg7
F0.029151323681258206
ssg7
(dp73
g1
F0.9346346211587155
sg5
F0.021609746558490715
sg6
F0.02546684161605963
sg7
F0.018288790666734122
sssg5
(dp74
g1
(dp75
g1
F0.12710208026806386
sg5
F0.732003706120511
sg6
F0.1342718877096778
sg7
F0.00662232590174725
ssg5
(dp76
g1
F0.1676289858856807
sg5
F0.4978443328674497
sg6
F0.17492029885938196
sg7
F0.15960638238748756
ssg6
(dp77
g1
F0.09020543262137014
sg5
F0.36235465459070526
sg6
F0.49716556590938127
sg7
F0.05027434687854327
ssg7
(dp78
g1
F0.04412251769098001
sg5
F0.8984010644417216
sg6
F0.0211875692734943
sg7
F0.0362888485938041
sssg6
(dp79
g1
(dp80
g1
F0.09092507236676392
sg5
F0.019728708552856297
sg6
F0.8817130428665692
sg7
F0.007633176213810714
ssg5
(dp81
g1
F0.03012946438200063
sg5
F0.0632984393761756
sg6
F0.8759889614093319
sg7
F0.030583134832491823
ssg6
(dp82
g1
F0.1391187754835462
sg5
F0.05481819501689324
sg6
F0.7268327805591722
sg7
F0.07923024894038845
ssg7
(dp83
g1
F0.0027592902379471105
sg5
F0.003599635187747009
sg6
F0.9717939328282666
sg7
F0.021847141746039283
sssg7
(dp84
g1
(dp85
g1
F0.15138364120747416
sg5
F0.24174817708683657
sg6
F0.18143188361679277
sg7
F0.42543629808889644
ssg5
(dp86
g1
F0.07059915868128853
sg5
F0.2803688647123075
sg6
F0.07688142334320903
sg7
F0.5721505532631949
ssg6
(dp87
g1
F0.20155721059740717
sg5
F0.1072608497271856
sg6
F0.49597680498281854
sg7
F0.1952051346925887
ssg7
(dp88
g1
F0.23100363553707318
sg5
F0.11810151497706635
sg6
F0.09763214170990332
sg7
F0.5532627077759572
ssss.