(dp0
S'A'
p1
(dp2
g1
F0.8453258374497739
sS'C'
p3
F0.03460600689268504
sS'T'
p4
F0.09245738642169003
sS'G'
p5
F0.02761076923585111
ssg3
(dp6
g1
F0.13671043195771326
sg3
F0.5909893047854208
sg4
F0.17248339715284786
sg5
F0.09981686610401815
ssg4
(dp7
g1
F0.027569784341467528
sg3
F0.008218451646535037
sg4
F0.9467344341297999
sg5
F0.017477329882197596
ssg5
(dp8
g1
F0.14165183234079592
sg3
F0.13696590032810171
sg4
F0.22519138057098886
sg5
F0.4961908867601135
ss.