(dp0
S'A'
p1
(dp2
g1
(dp3
g1
(dp4
g1
F0.822970665826393
sS'C'
p5
F0.05236878288468442
sS'T'
p6
F0.0942280456603724
sS'G'
p7
F0.030432505628550138
ssg5
(dp8
g1
F0.7207069978389563
sg5
F0.09944762987700073
sg6
F0.11566702714576248
sg7
F0.0641783451382805
ssg6
(dp9
g1
F0.5708869262931425
sg5
F0.054404959663413764
sg6
F0.3191318616681547
sg7
F0.05557625237528904
ssg7
(dp10
g1
F0.903040372203825
sg5
F0.0244838751153255
sg6
F0.03878072618174741
sg7
F0.03369502649910201
sssg5
(dp11
g1
(dp12
g1
F0.1511797501510625
sg5
F0.7360653546758915
sg6
F0.0777164757712468
sg7
F0.03503841940179933
ssg5
(dp13
g1
F0.17856724774875207
sg5
F0.6117678026263917
sg6
F0.11348937443176933
sg7
F0.09617557519308684
ssg6
(dp14
g1
F0.09639381343870924
sg5
F0.4758501942622657
sg6
F0.3177867945166768
sg7
F0.10996919778234833
ssg7
(dp15
g1
F0.0393351861449034
sg5
F0.8477753922247563
sg6
F0.041758322975989366
sg7
F0.07113109865435079
sssg6
(dp16
g1
(dp17
g1
F0.07516406981610785
sg5
F0.015662083942723417
sg6
F0.8953125263410014
sg7
F0.013861319900167235
ssg5
(dp18
g1
F0.04788596061663757
sg5
F0.049981225101324
sg6
F0.8720668889669577
sg7
F0.03006592531508071
ssg6
(dp19
g1
F0.10849870281362536
sg5
F0.02137300028411109
sg6
F0.8127178261308271
sg7
F0.05741047077143648
ssg7
(dp20
g1
F0.011395064398225706
sg5
F0.0038996959604898993
sg6
F0.9549432673603208
sg7
F0.02976197228096359
sssg7
(dp21
g1
(dp22
g1
F0.15268860105358356
sg5
F0.1207767092264499
sg6
F0.18956533998781294
sg7
F0.5369693497321535
ssg5
(dp23
g1
F0.13240936253192653
sg5
F0.152674396159782
sg6
F0.2266198971377761
sg7
F0.48829634417051543
ssg6
(dp24
g1
F0.13058691915441054
sg5
F0.0931458377435809
sg6
F0.503256171321437
sg7
F0.27301107178057155
ssg7
(dp25
g1
F0.26842194859872054
sg5
F0.064351348654007
sg6
F0.11197815198327601
sg7
F0.5552485507639964
ssssg5
(dp26
g1
(dp27
g1
(dp28
g1
F0.8936313039941002
sg5
F0.047413886514775704
sg6
F0.04808546259537712
sg7
F0.010869346895746937
ssg5
(dp29
g1
F0.8748096716429599
sg5
F0.06604110578631937
sg6
F0.03649397551818729
sg7
F0.022655247052533575
ssg6
(dp30
g1
F0.7322059213071502
sg5
F0.0537361936547493
sg6
F0.17232362199255982
sg7
F0.04173426304554064
ssg7
(dp31
g1
F0.9400640533724965
sg5
F0.010948442853002801
sg6
F0.02845065313816444
sg7
F0.020536850636336215
sssg5
(dp32
g1
(dp33
g1
F0.10811429284543983
sg5
F0.818539205862948
sg6
F0.0527748438693997
sg7
F0.020571657422212418
ssg5
(dp34
g1
F0.12085664306051251
sg5
F0.6467364399194399
sg6
F0.10960259383788507
sg7
F0.12280432318216268
ssg6
(dp35
g1
F0.08297318984503864
sg5
F0.6063964686485382
sg6
F0.2623939218858889
sg7
F0.04823641962053423
ssg7
(dp36
g1
F0.015631473741052934
sg5
F0.9195091675558004
sg6
F0.02842942077026744
sg7
F0.036429937932879373
sssg6
(dp37
g1
(dp38
g1
F0.0730354118637922
sg5
F0.017278907509093232
sg6
F0.8931588561271648
sg7
F0.016526824499949768
ssg5
(dp39
g1
F0.013780847901142243
sg5
F0.023664199219162546
sg6
F0.9474628052480605
sg7
F0.015092147631634632
ssg6
(dp40
g1
F0.04496561406836978
sg5
F0.021933591824384716
sg6
F0.88727892663574
sg7
F0.04582186747150548
ssg7
(dp41
g1
F0.006027043058951139
sg5
F0.0031264626636375074
sg6
F0.984072608500575
sg7
F0.0067738857768363135
sssg7
(dp42
g1
(dp43
g1
F0.17589464073326722
sg5
F0.17107947698085685
sg6
F0.12903841442039238
sg7
F0.5239874678654837
ssg5
(dp44
g1
F0.12189922148056472
sg5
F0.2580784212525134
sg6
F0.09895316699470084
sg7
F0.5210691902722211
ssg6
(dp45
g1
F0.17188025129303733
sg5
F0.18014398046196678
sg6
F0.25012415340657224
sg7
F0.3978516148384237
ssg7
(dp46
g1
F0.06716353098064196
sg5
F0.14409740278281996
sg6
F0.13297367457540435
sg7
F0.6557653916611338
ssssg6
(dp47
g1
(dp48
g1
(dp49
g1
F0.6622008739207379
sg5
F0.1042973751015553
sg6
F0.18566999128957473
sg7
F0.04783175968813203
ssg5
(dp50
g1
F0.7494542228680312
sg5
F0.10402336852047613
sg6
F0.09199493476143802
sg7
F0.054527473850054665
ssg6
(dp51
g1
F0.570195781755823
sg5
F0.07298154312191944
sg6
F0.27562542570827164
sg7
F0.08119724941398603
ssg7
(dp52
g1
F0.8466774404649519
sg5
F0.049589673914418306
sg6
F0.057433610566350636
sg7
F0.046299275054279235
sssg5
(dp53
g1
(dp54
g1
F0.25267565991170093
sg5
F0.4827483738581753
sg6
F0.200830602441733
sg7
F0.06374536378839075
ssg5
(dp55
g1
F0.23235849817684376
sg5
F0.28590979293613256
sg6
F0.31138165092703624
sg7
F0.1703500579599874
ssg6
(dp56
g1
F0.18954116669621685
sg5
F0.22825831966557394
sg6
F0.4816184209233931
sg7
F0.10058209271481612
ssg7
(dp57
g1
F0.12655121188398136
sg5
F0.7094510707986554
sg6
F0.06563961392166646
sg7
F0.0983581033956967
sssg6
(dp58
g1
(dp59
g1
F0.16737798310139262
sg5
F0.06005880613622877
sg6
F0.724235368971429
sg7
F0.0483278417909497
ssg5
(dp60
g1
F0.11043356995202151
sg5
F0.08283733783674034
sg6
F0.6969694201293478
sg7
F0.1097596720818904
ssg6
(dp61
g1
F0.11841093605647414
sg5
F0.05072340888135086
sg6
F0.7604458880715531
sg7
F0.07041976699062184
ssg7
(dp62
g1
F0.06241405020636648
sg5
F0.017321543756965752
sg6
F0.8618373673347607
sg7
F0.05842703870190702
sssg7
(dp63
g1
(dp64
g1
F0.21048309231602774
sg5
F0.179366022817466
sg6
F0.18159651383323255
sg7
F0.4285543710332737
ssg5
(dp65
g1
F0.1873930057810934
sg5
F0.2757850985544292
sg6
F0.15435981099205295
sg7
F0.3824620846724244
ssg6
(dp66
g1
F0.1535298149545966
sg5
F0.1299354190913155
sg6
F0.47436441701508175
sg7
F0.2421703489390062
ssg7
(dp67
g1
F0.12952633554417375
sg5
F0.09836156214596271
sg6
F0.34615427387948483
sg7
F0.4259578284303787
ssssg7
(dp68
g1
(dp69
g1
(dp70
g1
F0.7647847211581823
sg5
F0.037455922166137266
sg6
F0.12032667526027016
sg7
F0.07743268141541029
ssg5
(dp71
g1
F0.5579462250149582
sg5
F0.15127797255828593
sg6
F0.0856116096534703
sg7
F0.20516419277328568
ssg6
(dp72
g1
F0.5210407083215219
sg5
F0.05790294440908009
sg6
F0.2712252302925956
sg7
F0.14983111697680238
ssg7
(dp73
g1
F0.855875047360347
sg5
F0.06161350910318051
sg6
F0.039512051641156946
sg7
F0.042999391895315583
sssg5
(dp74
g1
(dp75
g1
F0.1548237907055276
sg5
F0.7177066730769125
sg6
F0.07890587049728622
sg7
F0.04856366572027377
ssg5
(dp76
g1
F0.1720031035506209
sg5
F0.5733661908580664
sg6
F0.10150442068853088
sg7
F0.15312628490278193
ssg6
(dp77
g1
F0.09694110664396569
sg5
F0.4315430274184116
sg6
F0.3910968178382894
sg7
F0.08041904809933338
ssg7
(dp78
g1
F0.05948718203578158
sg5
F0.8329748529281844
sg6
F0.03412987081988506
sg7
F0.07340809421614894
sssg6
(dp79
g1
(dp80
g1
F0.0812686301441063
sg5
F0.019497591148906885
sg6
F0.8798509537943573
sg7
F0.019382824912629416
ssg5
(dp81
g1
F0.04955808415980283
sg5
F0.09233632818398137
sg6
F0.8185990640830463
sg7
F0.039506523573169465
ssg6
(dp82
g1
F0.08710632997320297
sg5
F0.0523052772250596
sg6
F0.7364678595639511
sg7
F0.12412053323778632
ssg7
(dp83
g1
F0.00914015184299639
sg5
F0.005192778035012923
sg6
F0.9710331488934341
sg7
F0.014633921228556628
sssg7
(dp84
g1
(dp85
g1
F0.2323858829925713
sg5
F0.16074395551544085
sg6
F0.1510716737138748
sg7
F0.4557984877781131
ssg5
(dp86
g1
F0.08266957701677859
sg5
F0.11015838818772736
sg6
F0.1478744486581238
sg7
F0.6592975861373703
ssg6
(dp87
g1
F0.19591808343181924
sg5
F0.172160517591751
sg6
F0.2862258938271138
sg7
F0.3456955051493159
ssg7
(dp88
g1
F0.2058107434598012
sg5
F0.09156628720830616
sg6
F0.10390422236040284
sg7
F0.59871874697149
ssss.